; Function Attrs: mustprogress nounwind uwtable
define hidden void @_ZN7XDriver12stop_serviceEv(ptr noundef nonnull align 8 dereferenceable(1216) %0) unnamed_addr #4 align 2 {
  tail call void @_ZN6XAbort5abortEv() #12
  %2 = getelementptr inbounds i8, ptr %0, i64 920
  %3 = load i32, ptr @ConcGCThreads, align 4
  tail call void @_ZN5Mutex28lock_without_safepoint_checkEv(ptr noundef nonnull align 8 dereferenceable(104) %2) #12
  %4 = getelementptr inbounds i8, ptr %0, i64 1024
  %5 = load i8, ptr %4, align 8
  %6 = trunc i8 %5 to i1
  br i1 %6, label %_ZN12XMessagePortI14XDriverRequestE10send_asyncERKS0_.exit, label %7

7:                                                ; preds = %1
  %8 = getelementptr inbounds i8, ptr %0, i64 1028
  %.sroa.2.0.insert.ext = zext i32 %3 to i64
  %.sroa.2.0.insert.shift = shl nuw i64 %.sroa.2.0.insert.ext, 32
  %.sroa.0.0.insert.insert = or disjoint i64 %.sroa.2.0.insert.shift, 11
  store i64 %.sroa.0.0.insert.insert, ptr %8, align 4
  store i8 1, ptr %4, align 8
  tail call void @_ZN7Monitor6notifyEv(ptr noundef nonnull align 8 dereferenceable(104) %2) #12
  br label %_ZN12XMessagePortI14XDriverRequestE10send_asyncERKS0_.exit

_ZN12XMessagePortI14XDriverRequestE10send_asyncERKS0_.exit: ; preds = %1, %7
  tail call void @_ZN5Mutex6unlockEv(ptr noundef nonnull align 8 dereferenceable(104) %2) #12
  ret void
}